; Function Attrs: nounwind uwtable
define zeroext range(i8 0, 2) i8 @l___private_Std_Time_Date_PlainDate_0__Std_Time_decEqPlainDate____x40_Std_Time_Date_PlainDate___hyg_428_(ptr noundef readonly captures(none) %0, ptr noundef readonly captures(none) %1) local_unnamed_addr #0 {
  %3 = getelementptr inbounds nuw i8, ptr %0, i64 8
  %4 = load ptr, ptr %3, align 8, !tbaa !4
  %5 = getelementptr inbounds nuw i8, ptr %0, i64 16
  %6 = load ptr, ptr %5, align 8, !tbaa !4
  %7 = getelementptr inbounds nuw i8, ptr %0, i64 24
  %8 = load ptr, ptr %7, align 8, !tbaa !4
  %9 = getelementptr inbounds nuw i8, ptr %1, i64 8
  %10 = load ptr, ptr %9, align 8, !tbaa !4
  %11 = getelementptr inbounds nuw i8, ptr %1, i64 16
  %12 = load ptr, ptr %11, align 8, !tbaa !4
  %13 = getelementptr inbounds nuw i8, ptr %1, i64 24
  %14 = load ptr, ptr %13, align 8, !tbaa !4
  %15 = ptrtoint ptr %4 to i64
  %16 = ptrtoint ptr %10 to i64
  %17 = and i64 %15, 1
  %18 = and i64 %17, %16
  %or.cond.not.i.i = icmp eq i64 %18, 0
  br i1 %or.cond.not.i.i, label %lean_int_dec_eq.exit, label %19, !prof !15

19:                                               ; preds = %2
  %20 = icmp eq ptr %4, %10
  br i1 %20, label %22, label %39

lean_int_dec_eq.exit:                             ; preds = %2
  %21 = tail call zeroext i1 @lean_int_big_eq(ptr noundef %4, ptr noundef %10) #5
  br i1 %21, label %22, label %39

22:                                               ; preds = %19, %lean_int_dec_eq.exit
  %23 = ptrtoint ptr %6 to i64
  %24 = ptrtoint ptr %12 to i64
  %25 = and i64 %23, 1
  %26 = and i64 %25, %24
  %or.cond.not.i.i17 = icmp eq i64 %26, 0
  br i1 %or.cond.not.i.i17, label %lean_int_dec_eq.exit20, label %27, !prof !15

27:                                               ; preds = %22
  %28 = icmp eq ptr %6, %12
  br i1 %28, label %30, label %39

lean_int_dec_eq.exit20:                           ; preds = %22
  %29 = tail call zeroext i1 @lean_int_big_eq(ptr noundef %6, ptr noundef %12) #5
  br i1 %29, label %30, label %39

30:                                               ; preds = %27, %lean_int_dec_eq.exit20
  %31 = ptrtoint ptr %8 to i64
  %32 = ptrtoint ptr %14 to i64
  %33 = and i64 %31, 1
  %34 = and i64 %33, %32
  %or.cond.not.i.i21 = icmp eq i64 %34, 0
  br i1 %or.cond.not.i.i21, label %.critedge.i.i23, label %35, !prof !15

35:                                               ; preds = %30
  %36 = icmp eq ptr %8, %14
  br label %lean_int_dec_eq.exit24

.critedge.i.i23:                                  ; preds = %30
  %37 = tail call zeroext i1 @lean_int_big_eq(ptr noundef %8, ptr noundef %14) #5
  br label %lean_int_dec_eq.exit24

lean_int_dec_eq.exit24:                           ; preds = %35, %.critedge.i.i23
  %.0.i.i22 = phi i1 [ %36, %35 ], [ %37, %.critedge.i.i23 ]
  %38 = zext i1 %.0.i.i22 to i8
  br label %39

39:                                               ; preds = %27, %19, %lean_int_dec_eq.exit24, %lean_int_dec_eq.exit20, %lean_int_dec_eq.exit
  %.0 = phi i8 [ 0, %lean_int_dec_eq.exit ], [ %38, %lean_int_dec_eq.exit24 ], [ 0, %lean_int_dec_eq.exit20 ], [ 0, %19 ], [ 0, %27 ]
  ret i8 %.0
}